; Function Attrs: mustprogress nofree norecurse nosync nounwind willreturn memory(argmem: read) uwtable
define hidden range(i32 0, 3) i32 @av1_get_pred_context_comp_bwdref_p(ptr nocapture noundef readonly %0) local_unnamed_addr #2 {
  %2 = getelementptr inbounds i8, ptr %0, i64 10639
  %3 = load i8, ptr %2, align 1
  %4 = zext i8 %3 to i32
  %5 = getelementptr inbounds i8, ptr %0, i64 10640
  %6 = load i8, ptr %5, align 1
  %7 = zext i8 %6 to i32
  %8 = add nuw nsw i32 %7, %4
  %9 = getelementptr inbounds i8, ptr %0, i64 10641
  %10 = load i8, ptr %9, align 1
  %11 = zext i8 %10 to i32
  %12 = icmp eq i32 %8, %11
  %13 = icmp ult i32 %8, %11
  %14 = select i1 %13, i32 0, i32 2
  %15 = select i1 %12, i32 1, i32 %14
  ret i32 %15
}